Certificate:
    Data:
        Version: 3 (0x2)
        Serial Number: 1 (0x1)
        Signature Algorithm: sha256WithRSAEncryption
        Issuer: C=CN, ST=shanxi, O=Abc, OU=hello, CN=world/emailAddress=zoutao0909@163.com
        Validity
            Not Before: Apr 25 08:51:17 2023 GMT
            Not After : Apr 24 08:51:17 2024 GMT
        Subject: C=CN, ST=shanxi, O=Abc, OU=hello, CN=world/emailAddress=zoutao0909@163.com
        Subject Public Key Info:
            Public Key Algorithm: rsaEncryption
                RSA Public-Key: (2048 bit)
                Modulus:
                    00:c3:9b:9d:d2:e4:07:2e:58:93:08:e7:eb:a6:b0:
                    65:a4:0b:17:da:6b:35:d0:17:da:25:58:0a:87:54:
                    cf:25:a0:74:01:59:9d:f0:da:85:d7:c5:38:a2:e1:
                    69:18:c2:ac:4e:77:af:e6:37:4b:0e:65:e5:96:62:
                    d6:32:4d:5e:df:f9:f8:2e:af:f5:e3:99:f5:4b:13:
                    06:71:cd:ae:d5:14:63:f3:21:40:a1:15:4e:c5:f2:
                    95:d8:d2:04:03:cf:9b:12:95:4e:b7:cc:d4:2f:be:
                    52:e0:19:70:3b:47:4c:54:a4:da:08:e0:14:63:a2:
                    7e:cf:e9:56:fe:72:cb:50:b3:22:9a:59:2b:93:5f:
                    65:4c:4c:22:e2:0f:20:db:f6:7d:18:38:70:50:ef:
                    4d:3a:4b:6b:26:93:39:17:c9:38:e0:16:d6:1a:6b:
                    b6:d6:89:fe:30:58:fe:62:4f:4d:f3:7c:97:50:b9:
                    1e:9f:1f:34:02:0d:2d:91:a2:c9:e7:27:28:b2:5f:
                    5a:99:06:ca:e0:61:8c:84:66:0c:59:82:d3:63:7a:
                    72:ae:84:1b:7f:50:49:8e:fe:6b:14:9b:23:09:43:
                    6d:34:86:e9:76:88:3d:49:90:e7:06:60:80:df:eb:
                    db:10:93:b4:e3:ad:34:c8:08:ad:7b:42:61:1b:45:
                    26:ad
                Exponent: 65537 (0x10001)
        X509v3 extensions:
            X509v3 Basic Constraints: 
                CA:TRUE
            Netscape Comment: 
                OpenSSL Generated Certificate
            X509v3 Subject Key Identifier: 
                7D:29:40:05:9D:B4:FF:D3:F3:14:A0:BC:7A:5D:89:24:39:B3:C4:F2
            X509v3 Authority Key Identifier: 
                keyid:7D:29:40:05:9D:B4:FF:D3:F3:14:A0:BC:7A:5D:89:24:39:B3:C4:F2

    Signature Algorithm: sha256WithRSAEncryption
         47:1b:9c:0d:c9:b8:f0:ba:ca:7a:db:6c:d3:ff:70:9d:a4:a4:
         87:42:a4:06:f4:90:dd:c2:fb:bb:8e:39:b0:61:5a:e6:82:e6:
         a2:ec:ec:8d:a5:63:e9:d6:17:28:e2:8c:66:18:b1:88:4c:6c:
         24:8c:2a:98:0c:2e:97:8e:d1:9f:6c:d7:76:cc:0c:b4:f3:f5:
         2d:c2:f3:64:51:92:cf:c0:16:ed:ff:e1:a2:55:0c:42:55:45:
         7c:18:67:d9:6a:b2:81:60:4b:8d:98:85:5b:6d:2a:8c:68:82:
         48:7c:eb:22:26:6b:a9:5a:8c:40:71:8f:c4:0b:8b:58:98:82:
         21:31:db:60:01:3b:4a:60:8f:e1:5a:93:15:80:85:42:5e:a6:
         ea:20:ad:72:b5:2d:96:d4:29:5d:36:ca:56:d8:ff:f4:97:58:
         cb:9f:f9:39:76:b7:3b:63:ed:73:d4:0e:58:c3:ba:4a:7c:a6:
         57:d1:f5:c7:be:47:c4:ee:52:d5:0e:ad:77:39:3e:b1:b1:45:
         ef:81:71:86:80:1d:a3:ff:17:1d:95:1f:ed:be:90:29:17:9d:
         af:7c:b1:d9:5c:13:f7:a8:0e:a1:0e:ad:b3:02:19:c1:59:21:
         5b:99:3b:8d:c6:30:e6:21:f2:2c:3e:3b:c2:6a:15:10:63:e7:
         b3:5d:23:38
-----BEGIN CERTIFICATE-----
MIID1zCCAr+gAwIBAgIBATANBgkqhkiG9w0BAQsFADBvMQswCQYDVQQGEwJDTjEP
MA0GA1UECAwGc2hhbnhpMQwwCgYDVQQKDANBYmMxDjAMBgNVBAsMBWhlbGxvMQ4w
DAYDVQQDDAV3b3JsZDEhMB8GCSqGSIb3DQEJARYSem91dGFvMDkwOUAxNjMuY29t
MB4XDTIzMDQyNTA4NTExN1oXDTI0MDQyNDA4NTExN1owbzELMAkGA1UEBhMCQ04x
DzANBgNVBAgMBnNoYW54aTEMMAoGA1UECgwDQWJjMQ4wDAYDVQQLDAVoZWxsbzEO
MAwGA1UEAwwFd29ybGQxITAfBgkqhkiG9w0BCQEWEnpvdXRhbzA5MDlAMTYzLmNv
bTCCASIwDQYJKoZIhvcNAQEBBQADggEPADCCAQoCggEBAMObndLkBy5Ykwjn66aw
ZaQLF9prNdAX2iVYCodUzyWgdAFZnfDahdfFOKLhaRjCrE53r+Y3Sw5l5ZZi1jJN
Xt/5+C6v9eOZ9UsTBnHNrtUUY/MhQKEVTsXyldjSBAPPmxKVTrfM1C++UuAZcDtH
TFSk2gjgFGOifs/pVv5yy1CzIppZK5NfZUxMIuIPINv2fRg4cFDvTTpLayaTORfJ
OOAW1hprttaJ/jBY/mJPTfN8l1C5Hp8fNAINLZGiyecnKLJfWpkGyuBhjIRmDFmC
02N6cq6EG39QSY7+axSbIwlDbTSG6XaIPUmQ5wZggN/r2xCTtOOtNMgIrXtCYRtF
Jq0CAwEAAaN+MHwwDAYDVR0TBAUwAwEB/zAsBglghkgBhvhCAQ0EHxYdT3BlblNT
TCBHZW5lcmF0ZWQgQ2VydGlmaWNhdGUwHQYDVR0OBBYEFH0pQAWdtP/T8xSgvHpd
iSQ5s8TyMB8GA1UdIwQYMBaAFH0pQAWdtP/T8xSgvHpdiSQ5s8TyMA0GCSqGSIb3
DQEBCwUAA4IBAQBHG5wNybjwusp622zT/3CdpKSHQqQG9JDdwvu7jjmwYVrmguai
7OyNpWPp1hco4oxmGLGITGwkjCqYDC6XjtGfbNd2zAy08/UtwvNkUZLPwBbt/+Gi
VQxCVUV8GGfZarKBYEuNmIVbbSqMaIJIfOsiJmupWoxAcY/EC4tYmIIhMdtgATtK
YI/hWpMVgIVCXqbqIK1ytS2W1CldNspW2P/0l1jLn/k5drc7Y+1z1A5Yw7pKfKZX
0fXHvkfE7lLVDq13OT6xsUXvgXGGgB2j/xcdlR/tvpApF52vfLHZXBP3qA6hDq2z
AhnBWSFbmTuNxjDmIfIsPjvCahUQY+ezXSM4
-----END CERTIFICATE-----
