Certificate:
    Data:
        Version: 3 (0x2)
        Serial Number: 3 (0x3)
        Signature Algorithm: sha256WithRSAEncryption
        Issuer: C=CN, ST=shanxi, O=Abc, OU=hello, CN=world/emailAddress=zoutao0909@163.com
        Validity
            Not Before: Apr 25 09:13:00 2023 GMT
            Not After : Apr 22 09:13:00 2033 GMT
        Subject: C=CN, ST=shanxi, O=Abc, OU=hello, CN=world/emailAddress=zoutao0909@163.com
        Subject Public Key Info:
            Public Key Algorithm: rsaEncryption
                RSA Public-Key: (2048 bit)
                Modulus:
                    00:c6:ef:5d:cf:15:b3:f9:22:60:01:64:d5:c3:89:
                    f1:2c:c9:27:9c:26:90:22:f2:77:9f:d3:77:28:aa:
                    c3:c9:7e:e6:7a:46:86:d4:75:09:6c:4a:8a:8e:4d:
                    62:f2:67:bc:a4:0e:35:7f:3d:f5:b3:b5:bb:8d:b7:
                    b0:6f:d8:bc:dc:20:72:53:c5:86:b8:c3:cf:9f:82:
                    4e:81:24:bc:c8:33:5e:6a:12:c5:99:5a:6f:2a:43:
                    39:55:ed:9e:55:22:eb:70:06:58:3e:2c:a0:b8:85:
                    42:df:59:89:8f:f4:39:c4:c4:f1:36:04:57:bc:65:
                    d9:c7:94:39:ac:4c:c5:4d:a0:62:59:75:28:f2:3f:
                    8b:75:44:d6:93:ce:51:c4:23:e3:0c:40:de:49:4a:
                    69:6a:7f:8a:14:99:55:12:28:e8:90:69:c3:04:9e:
                    2d:c3:8d:26:de:ac:06:ae:a7:ed:69:43:d3:8d:ff:
                    dc:72:39:6d:e2:7c:77:78:d3:a3:6f:24:37:c5:7f:
                    91:e7:36:38:30:e2:73:1a:60:a6:23:0c:3c:cf:81:
                    e7:85:88:aa:23:79:27:8f:e7:ee:de:28:7f:f4:ab:
                    e0:e2:f6:ae:53:92:e2:b4:83:7b:88:f1:90:ea:b0:
                    82:c8:7b:a9:b5:0c:0e:36:27:da:23:6f:bd:97:11:
                    28:71
                Exponent: 65537 (0x10001)
        X509v3 extensions:
            X509v3 Basic Constraints: 
                CA:FALSE
            Netscape Comment: 
                OpenSSL Generated Certificate
            X509v3 Subject Key Identifier: 
                4C:67:08:5D:C2:F4:CA:56:94:0E:5B:08:6F:36:CF:62:87:86:34:0E
            X509v3 Authority Key Identifier: 
                keyid:7D:29:40:05:9D:B4:FF:D3:F3:14:A0:BC:7A:5D:89:24:39:B3:C4:F2

    Signature Algorithm: sha256WithRSAEncryption
         0f:d9:f8:ac:16:0c:a9:af:3b:e0:50:4c:39:5d:d6:20:d9:62:
         44:72:4d:d8:a2:d8:ff:e1:9d:13:ec:4d:a6:80:92:e1:fc:d5:
         5c:8e:4d:0c:8e:59:90:45:48:92:67:ad:e5:9e:2c:bb:6b:ae:
         10:60:c4:ba:58:2d:6d:b4:b7:8c:e4:a9:b9:a7:8f:36:a5:b9:
         36:14:23:b2:b5:ff:cf:b6:74:bc:6c:c8:a6:b2:03:76:c7:52:
         4d:16:73:80:24:f7:4c:68:6a:10:8d:5c:6a:20:54:70:c1:2c:
         d0:6f:0b:a2:76:1e:e2:a5:aa:31:80:c0:c3:c5:d3:e9:06:ea:
         8e:03:a4:21:a5:1b:7a:f4:dc:2f:37:a5:ba:a2:55:90:17:f8:
         fe:99:79:de:e0:dc:f7:43:4a:08:8e:f4:3c:dd:23:a6:c2:bc:
         a4:d6:cd:35:6b:82:00:a6:b9:13:a4:73:98:43:21:c1:59:b6:
         20:93:96:7c:38:30:1b:8f:ec:85:d2:6f:ec:c1:98:99:75:96:
         3d:17:83:41:14:8e:ea:da:c8:08:de:4e:d2:67:88:3d:78:8b:
         b5:fe:9f:02:71:63:fe:00:d1:56:39:9d:4a:ab:91:74:78:18:
         14:90:c8:e1:1c:56:67:38:f3:97:76:8d:14:39:09:49:1e:8e:
         55:38:69:59
-----BEGIN CERTIFICATE-----
MIID1DCCArygAwIBAgIBAzANBgkqhkiG9w0BAQsFADBvMQswCQYDVQQGEwJDTjEP
MA0GA1UECAwGc2hhbnhpMQwwCgYDVQQKDANBYmMxDjAMBgNVBAsMBWhlbGxvMQ4w
DAYDVQQDDAV3b3JsZDEhMB8GCSqGSIb3DQEJARYSem91dGFvMDkwOUAxNjMuY29t
MB4XDTIzMDQyNTA5MTMwMFoXDTMzMDQyMjA5MTMwMFowbzELMAkGA1UEBhMCQ04x
DzANBgNVBAgMBnNoYW54aTEMMAoGA1UECgwDQWJjMQ4wDAYDVQQLDAVoZWxsbzEO
MAwGA1UEAwwFd29ybGQxITAfBgkqhkiG9w0BCQEWEnpvdXRhbzA5MDlAMTYzLmNv
bTCCASIwDQYJKoZIhvcNAQEBBQADggEPADCCAQoCggEBAMbvXc8Vs/kiYAFk1cOJ
8SzJJ5wmkCLyd5/Tdyiqw8l+5npGhtR1CWxKio5NYvJnvKQONX899bO1u423sG/Y
vNwgclPFhrjDz5+CToEkvMgzXmoSxZlabypDOVXtnlUi63AGWD4soLiFQt9ZiY/0
OcTE8TYEV7xl2ceUOaxMxU2gYll1KPI/i3VE1pPOUcQj4wxA3klKaWp/ihSZVRIo
6JBpwwSeLcONJt6sBq6n7WlD043/3HI5beJ8d3jTo28kN8V/kec2ODDicxpgpiMM
PM+B54WIqiN5J4/n7t4of/Sr4OL2rlOS4rSDe4jxkOqwgsh7qbUMDjYn2iNvvZcR
KHECAwEAAaN7MHkwCQYDVR0TBAIwADAsBglghkgBhvhCAQ0EHxYdT3BlblNTTCBH
ZW5lcmF0ZWQgQ2VydGlmaWNhdGUwHQYDVR0OBBYEFExnCF3C9MpWlA5bCG82z2KH
hjQOMB8GA1UdIwQYMBaAFH0pQAWdtP/T8xSgvHpdiSQ5s8TyMA0GCSqGSIb3DQEB
CwUAA4IBAQAP2fisFgyprzvgUEw5XdYg2WJEck3Yotj/4Z0T7E2mgJLh/NVcjk0M
jlmQRUiSZ63lniy7a64QYMS6WC1ttLeM5Km5p482pbk2FCOytf/PtnS8bMimsgN2
x1JNFnOAJPdMaGoQjVxqIFRwwSzQbwuidh7ipaoxgMDDxdPpBuqOA6QhpRt69Nwv
N6W6olWQF/j+mXne4Nz3Q0oIjvQ83SOmwryk1s01a4IAprkTpHOYQyHBWbYgk5Z8
ODAbj+yF0m/swZiZdZY9F4NBFI7q2sgI3k7SZ4g9eIu1/p8CcWP+ANFWOZ1Kq5F0
eBgUkMjhHFZnOPOXdo0UOQlJHo5VOGlZ
-----END CERTIFICATE-----
