Certificate:
    Data:
        Version: 3 (0x2)
        Serial Number: 2 (0x2)
        Signature Algorithm: sha256WithRSAEncryption
        Issuer: C=CN, ST=shanxi, O=Abc, OU=hello, CN=world/emailAddress=zoutao0909@163.com
        Validity
            Not Before: Apr 25 08:59:20 2023 GMT
            Not After : Apr 22 08:59:20 2033 GMT
        Subject: C=CN, ST=shanxi, O=Abc, OU=hello, CN=world/emailAddress=zoutao0909@163.com
        Subject Public Key Info:
            Public Key Algorithm: rsaEncryption
                RSA Public-Key: (2048 bit)
                Modulus:
                    00:9e:54:e1:33:4d:1d:26:af:a4:6b:62:47:b6:f4:
                    4e:b2:db:fe:d2:13:a6:9c:c5:65:12:bb:fd:0e:c6:
                    99:60:ed:20:91:ab:5f:ff:82:68:aa:d0:be:b2:db:
                    fc:d5:87:a4:6d:4a:dc:f1:5e:6e:09:52:0f:16:01:
                    3b:c5:8f:e1:26:80:09:a4:5f:b9:fd:b3:a2:1a:be:
                    c4:ee:d9:40:7c:38:0e:df:54:ea:76:6c:10:f6:b0:
                    34:fc:cc:b0:ed:68:e3:9d:f5:0e:6c:e3:15:3c:cd:
                    02:19:12:57:69:d6:b2:7e:c8:3f:59:d6:49:06:fc:
                    1a:c5:d4:c3:72:14:d9:45:17:95:49:c6:23:95:24:
                    49:7c:bc:a3:38:72:99:37:50:08:bd:00:7a:1b:50:
                    ea:dc:d2:77:25:f6:a3:a6:23:b3:8d:72:2a:3f:ee:
                    0c:60:c3:59:af:dd:bd:bf:62:b6:47:24:4e:9b:15:
                    88:af:e0:7c:af:b5:56:96:81:0a:e7:f8:a4:95:76:
                    0e:c8:e5:39:ca:a7:b3:93:69:3e:36:98:35:9e:6b:
                    65:79:84:04:6e:b4:6b:1c:85:64:8c:e0:2a:bf:66:
                    32:9d:64:4d:52:04:51:df:52:b3:f7:d5:3f:4d:db:
                    b1:63:b5:dd:f7:f4:13:f4:4f:34:2f:87:8c:3b:ba:
                    fb:e5
                Exponent: 65537 (0x10001)
        X509v3 extensions:
            X509v3 Basic Constraints: 
                CA:FALSE
            Netscape Comment: 
                OpenSSL Generated Certificate
            X509v3 Subject Key Identifier: 
                CF:1D:8A:AB:40:43:B9:0E:A1:D9:A8:CF:67:70:72:17:4F:BB:22:26
            X509v3 Authority Key Identifier: 
                keyid:7D:29:40:05:9D:B4:FF:D3:F3:14:A0:BC:7A:5D:89:24:39:B3:C4:F2

    Signature Algorithm: sha256WithRSAEncryption
         ad:7d:0f:00:22:1b:dc:11:0e:61:0f:d6:cc:68:6e:f1:13:a2:
         5d:8f:44:4d:ab:40:b5:05:ba:73:18:e2:4e:12:2d:24:0f:e6:
         3c:fd:7c:db:de:55:6b:65:62:64:65:2d:b7:78:82:1b:21:f8:
         97:5f:3c:15:14:db:95:12:8f:92:b8:41:98:1a:7d:13:3c:75:
         84:1e:8c:b3:ec:c6:b6:d7:d8:3b:83:32:be:77:2e:6f:c2:85:
         be:4e:a1:05:97:b8:32:8f:55:31:51:5c:26:e1:63:19:6f:7b:
         a8:4c:aa:98:62:07:57:0a:bf:b3:fb:94:78:9b:e2:eb:59:59:
         d5:10:79:30:7b:6e:b8:04:2b:45:74:20:66:a5:9e:3d:01:2e:
         37:57:61:09:fb:61:8d:65:db:43:4c:b0:2f:eb:04:d1:a0:22:
         b5:91:1a:f8:5e:20:9f:7f:73:06:1d:49:ca:6d:0b:5e:ee:ce:
         80:03:16:ac:c4:28:06:3a:a2:7e:c4:58:84:93:c9:39:7d:84:
         f8:cd:89:52:5d:a1:ca:d9:9e:30:f2:63:8b:97:aa:88:dd:7a:
         21:5a:ea:ee:12:32:00:0f:03:a1:55:57:57:03:92:68:5b:7a:
         6b:90:cd:2c:47:85:0f:7a:bc:4b:cb:84:e7:5b:8d:be:d2:9b:
         bc:1c:36:7e
-----BEGIN CERTIFICATE-----
MIID1DCCArygAwIBAgIBAjANBgkqhkiG9w0BAQsFADBvMQswCQYDVQQGEwJDTjEP
MA0GA1UECAwGc2hhbnhpMQwwCgYDVQQKDANBYmMxDjAMBgNVBAsMBWhlbGxvMQ4w
DAYDVQQDDAV3b3JsZDEhMB8GCSqGSIb3DQEJARYSem91dGFvMDkwOUAxNjMuY29t
MB4XDTIzMDQyNTA4NTkyMFoXDTMzMDQyMjA4NTkyMFowbzELMAkGA1UEBhMCQ04x
DzANBgNVBAgMBnNoYW54aTEMMAoGA1UECgwDQWJjMQ4wDAYDVQQLDAVoZWxsbzEO
MAwGA1UEAwwFd29ybGQxITAfBgkqhkiG9w0BCQEWEnpvdXRhbzA5MDlAMTYzLmNv
bTCCASIwDQYJKoZIhvcNAQEBBQADggEPADCCAQoCggEBAJ5U4TNNHSavpGtiR7b0
TrLb/tITppzFZRK7/Q7GmWDtIJGrX/+CaKrQvrLb/NWHpG1K3PFebglSDxYBO8WP
4SaACaRfuf2zohq+xO7ZQHw4Dt9U6nZsEPawNPzMsO1o4531DmzjFTzNAhkSV2nW
sn7IP1nWSQb8GsXUw3IU2UUXlUnGI5UkSXy8ozhymTdQCL0AehtQ6tzSdyX2o6Yj
s41yKj/uDGDDWa/dvb9itkckTpsViK/gfK+1VpaBCuf4pJV2DsjlOcqns5NpPjaY
NZ5rZXmEBG60axyFZIzgKr9mMp1kTVIEUd9Ss/fVP03bsWO13ff0E/RPNC+HjDu6
++UCAwEAAaN7MHkwCQYDVR0TBAIwADAsBglghkgBhvhCAQ0EHxYdT3BlblNTTCBH
ZW5lcmF0ZWQgQ2VydGlmaWNhdGUwHQYDVR0OBBYEFM8diqtAQ7kOodmoz2dwchdP
uyImMB8GA1UdIwQYMBaAFH0pQAWdtP/T8xSgvHpdiSQ5s8TyMA0GCSqGSIb3DQEB
CwUAA4IBAQCtfQ8AIhvcEQ5hD9bMaG7xE6Jdj0RNq0C1BbpzGOJOEi0kD+Y8/Xzb
3lVrZWJkZS23eIIbIfiXXzwVFNuVEo+SuEGYGn0TPHWEHoyz7Ma219g7gzK+dy5v
woW+TqEFl7gyj1UxUVwm4WMZb3uoTKqYYgdXCr+z+5R4m+LrWVnVEHkwe264BCtF
dCBmpZ49AS43V2EJ+2GNZdtDTLAv6wTRoCK1kRr4XiCff3MGHUnKbQte7s6AAxas
xCgGOqJ+xFiEk8k5fYT4zYlSXaHK2Z4w8mOLl6qI3XohWuruEjIADwOhVVdXA5Jo
W3prkM0sR4UPerxLy4TnW42+0pu8HDZ+
-----END CERTIFICATE-----
